; Function Attrs: mustprogress nofree norecurse nosync nounwind sspstrong willreturn memory(argmem: readwrite) uwtable
define internal fastcc void @select_opt_exact_info(ptr noundef readonly captures(none) %0, ptr noundef nonnull captures(none) %1, ptr noundef nonnull readonly captures(none) %2) unnamed_addr #16 {
  %4 = getelementptr inbounds nuw i8, ptr %1, i64 32
  %5 = load i32, ptr %4, align 8, !tbaa !94
  %6 = getelementptr inbounds nuw i8, ptr %2, i64 32
  %7 = load i32, ptr %6, align 8, !tbaa !94
  %8 = icmp eq i32 %7, 0
  br i1 %8, label %comp_distance_value.exit, label %9

9:                                                ; preds = %3
  %10 = icmp eq i32 %5, 0
  br i1 %10, label %comp_distance_value.exit.sink.split, label %11

11:                                               ; preds = %9
  %12 = icmp slt i32 %5, 3
  %13 = icmp slt i32 %7, 3
  %or.cond = and i1 %12, %13
  br i1 %or.cond, label %14, label %47

14:                                               ; preds = %11
  %15 = getelementptr inbounds nuw i8, ptr %1, i64 36
  %16 = load i8, ptr %15, align 4, !tbaa !34
  %17 = icmp sgt i8 %16, -1
  br i1 %17, label %18, label %map_position_value.exit

18:                                               ; preds = %14
  %19 = icmp eq i8 %16, 0
  br i1 %19, label %20, label %24

20:                                               ; preds = %18
  %21 = getelementptr inbounds nuw i8, ptr %0, i64 20
  %22 = load i32, ptr %21, align 4, !tbaa !160
  %23 = icmp sgt i32 %22, 1
  br i1 %23, label %map_position_value.exit, label %24

24:                                               ; preds = %20, %18
  %25 = zext nneg i8 %16 to i64
  %26 = getelementptr [128 x i16], ptr @map_position_value.ByteValTable, i64 0, i64 %25
  %27 = load i16, ptr %26, align 2, !tbaa !98
  %28 = sext i16 %27 to i32
  br label %map_position_value.exit

map_position_value.exit:                          ; preds = %14, %20, %24
  %.0.i = phi i32 [ %28, %24 ], [ 20, %20 ], [ 4, %14 ]
  %29 = getelementptr inbounds nuw i8, ptr %2, i64 36
  %30 = load i8, ptr %29, align 4, !tbaa !34
  %31 = icmp sgt i8 %30, -1
  br i1 %31, label %32, label %map_position_value.exit33

32:                                               ; preds = %map_position_value.exit
  %33 = icmp eq i8 %30, 0
  br i1 %33, label %34, label %38

34:                                               ; preds = %32
  %35 = getelementptr inbounds nuw i8, ptr %0, i64 20
  %36 = load i32, ptr %35, align 4, !tbaa !160
  %37 = icmp sgt i32 %36, 1
  br i1 %37, label %map_position_value.exit33, label %38

38:                                               ; preds = %34, %32
  %39 = zext nneg i8 %30 to i64
  %40 = getelementptr [128 x i16], ptr @map_position_value.ByteValTable, i64 0, i64 %39
  %41 = load i16, ptr %40, align 2, !tbaa !98
  %42 = sext i16 %41 to i32
  br label %map_position_value.exit33

map_position_value.exit33:                        ; preds = %map_position_value.exit, %34, %38
  %.0.i32 = phi i32 [ %42, %38 ], [ 20, %34 ], [ 4, %map_position_value.exit ]
  %43 = icmp sgt i32 %5, 1
  %44 = add nsw i32 %.0.i32, 5
  %spec.select = select i1 %43, i32 %44, i32 %.0.i32
  %45 = icmp sgt i32 %7, 1
  %46 = add nsw i32 %.0.i, 5
  %spec.select31 = select i1 %45, i32 %46, i32 %.0.i
  br label %47

47:                                               ; preds = %map_position_value.exit33, %11
  %.127 = phi i32 [ %5, %11 ], [ %spec.select, %map_position_value.exit33 ]
  %.0 = phi i32 [ %7, %11 ], [ %spec.select31, %map_position_value.exit33 ]
  %48 = getelementptr inbounds nuw i8, ptr %1, i64 28
  %49 = load i32, ptr %48, align 4, !tbaa !95
  %50 = icmp slt i32 %49, 1
  %51 = zext i1 %50 to i32
  %spec.select30 = shl i32 %.127, %51
  %52 = getelementptr inbounds nuw i8, ptr %2, i64 28
  %53 = load i32, ptr %52, align 4, !tbaa !95
  %54 = icmp slt i32 %53, 1
  %55 = zext i1 %54 to i32
  %.1 = shl i32 %.0, %55
  %56 = icmp slt i32 %.1, 1
  br i1 %56, label %comp_distance_value.exit, label %57

57:                                               ; preds = %47
  %58 = icmp slt i32 %spec.select30, 1
  br i1 %58, label %comp_distance_value.exit.sink.split, label %59

59:                                               ; preds = %57
  %60 = getelementptr inbounds nuw i8, ptr %1, i64 8
  %61 = load i64, ptr %60, align 8, !tbaa !96
  %62 = icmp eq i64 %61, -1
  br i1 %62, label %distance_value.exit.i, label %63

63:                                               ; preds = %59
  %64 = load i64, ptr %1, align 8, !tbaa !97
  %65 = sub i64 %61, %64
  %66 = icmp ult i64 %65, 100
  br i1 %66, label %67, label %distance_value.exit.i

67:                                               ; preds = %63
  %68 = getelementptr [100 x i16], ptr @distance_value.dist_vals, i64 0, i64 %65
  %69 = load i16, ptr %68, align 2, !tbaa !98
  %70 = sext i16 %69 to i32
  br label %distance_value.exit.i

distance_value.exit.i:                            ; preds = %67, %63, %59
  %.0.i.i = phi i32 [ %70, %67 ], [ 0, %59 ], [ 1, %63 ]
  %71 = mul i32 %.0.i.i, %spec.select30
  %72 = getelementptr inbounds nuw i8, ptr %2, i64 8
  %73 = load i64, ptr %72, align 8, !tbaa !96
  %74 = icmp eq i64 %73, -1
  br i1 %74, label %distance_value.exit21.i, label %75

75:                                               ; preds = %distance_value.exit.i
  %76 = load i64, ptr %2, align 8, !tbaa !97
  %77 = sub i64 %73, %76
  %78 = icmp ult i64 %77, 100
  br i1 %78, label %79, label %distance_value.exit21.i

79:                                               ; preds = %75
  %80 = getelementptr [100 x i16], ptr @distance_value.dist_vals, i64 0, i64 %77
  %81 = load i16, ptr %80, align 2, !tbaa !98
  %82 = sext i16 %81 to i32
  br label %distance_value.exit21.i

distance_value.exit21.i:                          ; preds = %79, %75, %distance_value.exit.i
  %.0.i20.i = phi i32 [ %82, %79 ], [ 0, %distance_value.exit.i ], [ 1, %75 ]
  %83 = mul i32 %.0.i20.i, %.1
  %84 = icmp sgt i32 %83, %71
  br i1 %84, label %comp_distance_value.exit.sink.split, label %85

85:                                               ; preds = %distance_value.exit21.i
  %86 = icmp slt i32 %83, %71
  br i1 %86, label %comp_distance_value.exit, label %87

87:                                               ; preds = %85
  %88 = load i64, ptr %2, align 8, !tbaa !97
  %89 = load i64, ptr %1, align 8, !tbaa !97
  %90 = icmp ult i64 %88, %89
  br i1 %90, label %comp_distance_value.exit.sink.split, label %comp_distance_value.exit

comp_distance_value.exit.sink.split:              ; preds = %87, %distance_value.exit21.i, %57, %9
  tail call void @llvm.memcpy.p0.p0.i64(ptr noundef nonnull align 8 dereferenceable(64) %1, ptr noundef nonnull readonly align 8 dereferenceable(64) %2, i64 64, i1 false)
  br label %comp_distance_value.exit

comp_distance_value.exit:                         ; preds = %comp_distance_value.exit.sink.split, %87, %85, %47, %3
  ret void
}